; ModuleID = 'source-C-CXX/30/1340.c'
source_filename = "source-C-CXX/30/1340.c"
target datalayout = "e-m:e-p270:32:32-p271:32:32-p272:64:64-i64:64-f80:128-n8:16:32:64-S128"
target triple = "x86_64-pc-linux-gnu"

%struct.student = type { [20 x i8], [20 x i8], i8, i32, float, [20 x i8], %struct.student* }

@.str = private unnamed_addr constant [18 x i8] c"%s %s %c %d %f %s\00", align 1
@.str.1 = private unnamed_addr constant [4 x i8] c"end\00", align 1
@.str.2 = private unnamed_addr constant [19 x i8] c"%s %s %c %d %g %s\0A\00", align 1

; Function Attrs: nofree nounwind sspstrong uwtable
define dso_local %struct.student* @input() local_unnamed_addr #0 {
  %1 = tail call noalias align 16 dereferenceable_or_null(100) i8* @malloc(i64 100) #4
  %2 = bitcast i8* %1 to %struct.student*
  %3 = getelementptr inbounds %struct.student, %struct.student* %2, i64 0, i32 6
  store %struct.student* null, %struct.student** %3, align 8, !tbaa !5
  %4 = getelementptr inbounds %struct.student, %struct.student* %2, i64 0, i32 0, i64 0
  %5 = getelementptr inbounds %struct.student, %struct.student* %2, i64 0, i32 1, i64 0
  %6 = getelementptr inbounds %struct.student, %struct.student* %2, i64 0, i32 2
  %7 = getelementptr inbounds %struct.student, %struct.student* %2, i64 0, i32 3
  %8 = getelementptr inbounds %struct.student, %struct.student* %2, i64 0, i32 4
  %9 = getelementptr inbounds %struct.student, %struct.student* %2, i64 0, i32 5, i64 0
  %10 = tail call i32 (i8*, ...) @__isoc99_scanf(i8* getelementptr inbounds ([18 x i8], [18 x i8]* @.str, i64 0, i64 0), i8* %4, i8* nonnull %5, i8* nonnull %6, i32* nonnull %7, float* nonnull %8, i8* nonnull %9)
  br label %11

11:                                               ; preds = %11, %0
  %12 = phi %struct.student* [ %2, %0 ], [ %14, %11 ]
  %13 = tail call noalias align 16 dereferenceable_or_null(100) i8* @malloc(i64 100) #4
  %14 = bitcast i8* %13 to %struct.student*
  %15 = getelementptr inbounds %struct.student, %struct.student* %14, i64 0, i32 0, i64 0
  %16 = getelementptr inbounds %struct.student, %struct.student* %14, i64 0, i32 1, i64 0
  %17 = getelementptr inbounds %struct.student, %struct.student* %14, i64 0, i32 2
  %18 = getelementptr inbounds %struct.student, %struct.student* %14, i64 0, i32 3
  %19 = getelementptr inbounds %struct.student, %struct.student* %14, i64 0, i32 4
  %20 = getelementptr inbounds %struct.student, %struct.student* %14, i64 0, i32 5, i64 0
  %21 = tail call i32 (i8*, ...) @__isoc99_scanf(i8* getelementptr inbounds ([18 x i8], [18 x i8]* @.str, i64 0, i64 0), i8* %15, i8* nonnull %16, i8* nonnull %17, i32* nonnull %18, float* nonnull %19, i8* nonnull %20)
  %22 = getelementptr inbounds %struct.student, %struct.student* %14, i64 0, i32 6
  store %struct.student* %12, %struct.student** %22, align 8, !tbaa !5
  %23 = tail call i32 @strcmp(i8* noundef nonnull dereferenceable(1) %15, i8* noundef nonnull dereferenceable(4) getelementptr inbounds ([4 x i8], [4 x i8]* @.str.1, i64 0, i64 0)) #5
  %24 = icmp eq i32 %23, 0
  br i1 %24, label %25, label %11, !llvm.loop !12

25:                                               ; preds = %11
  ret %struct.student* %12
}

; Function Attrs: inaccessiblememonly mustprogress nofree nounwind willreturn
declare noalias noundef align 16 i8* @malloc(i64 noundef) local_unnamed_addr #1

; Function Attrs: nofree nounwind
declare noundef i32 @__isoc99_scanf(i8* nocapture noundef readonly, ...) local_unnamed_addr #2

; Function Attrs: argmemonly mustprogress nofree nounwind readonly willreturn
declare i32 @strcmp(i8* nocapture, i8* nocapture) local_unnamed_addr #3

; Function Attrs: nofree nounwind sspstrong uwtable
define dso_local void @print(%struct.student* %0) local_unnamed_addr #0 {
  br label %2

2:                                                ; preds = %2, %1
  %3 = phi %struct.student* [ %0, %1 ], [ %17, %2 ]
  %4 = getelementptr inbounds %struct.student, %struct.student* %3, i64 0, i32 0, i64 0
  %5 = getelementptr inbounds %struct.student, %struct.student* %3, i64 0, i32 1, i64 0
  %6 = getelementptr inbounds %struct.student, %struct.student* %3, i64 0, i32 2
  %7 = load i8, i8* %6, align 8, !tbaa !14
  %8 = sext i8 %7 to i32
  %9 = getelementptr inbounds %struct.student, %struct.student* %3, i64 0, i32 3
  %10 = load i32, i32* %9, align 4, !tbaa !15
  %11 = getelementptr inbounds %struct.student, %struct.student* %3, i64 0, i32 4
  %12 = load float, float* %11, align 8, !tbaa !16
  %13 = fpext float %12 to double
  %14 = getelementptr inbounds %struct.student, %struct.student* %3, i64 0, i32 5, i64 0
  %15 = tail call i32 (i8*, ...) @printf(i8* nonnull dereferenceable(1) getelementptr inbounds ([19 x i8], [19 x i8]* @.str.2, i64 0, i64 0), i8* %4, i8* nonnull %5, i32 %8, i32 %10, double %13, i8* nonnull %14)
  %16 = getelementptr inbounds %struct.student, %struct.student* %3, i64 0, i32 6
  %17 = load %struct.student*, %struct.student** %16, align 8, !tbaa !5
  %18 = icmp eq %struct.student* %17, null
  br i1 %18, label %19, label %2, !llvm.loop !17

19:                                               ; preds = %2
  ret void
}

; Function Attrs: nofree nounwind
declare noundef i32 @printf(i8* nocapture noundef readonly, ...) local_unnamed_addr #2

; Function Attrs: nofree nounwind sspstrong uwtable
define dso_local void @main() local_unnamed_addr #0 {
  %1 = tail call noalias align 16 dereferenceable_or_null(100) i8* @malloc(i64 100) #4
  %2 = bitcast i8* %1 to %struct.student*
  %3 = getelementptr inbounds %struct.student, %struct.student* %2, i64 0, i32 6
  store %struct.student* null, %struct.student** %3, align 8, !tbaa !5
  %4 = getelementptr inbounds %struct.student, %struct.student* %2, i64 0, i32 0, i64 0
  %5 = getelementptr inbounds %struct.student, %struct.student* %2, i64 0, i32 1, i64 0
  %6 = getelementptr inbounds %struct.student, %struct.student* %2, i64 0, i32 2
  %7 = getelementptr inbounds %struct.student, %struct.student* %2, i64 0, i32 3
  %8 = getelementptr inbounds %struct.student, %struct.student* %2, i64 0, i32 4
  %9 = getelementptr inbounds %struct.student, %struct.student* %2, i64 0, i32 5, i64 0
  %10 = tail call i32 (i8*, ...) @__isoc99_scanf(i8* getelementptr inbounds ([18 x i8], [18 x i8]* @.str, i64 0, i64 0), i8* %4, i8* nonnull %5, i8* nonnull %6, i32* nonnull %7, float* nonnull %8, i8* nonnull %9) #4
  br label %11

11:                                               ; preds = %11, %0
  %12 = phi %struct.student* [ %2, %0 ], [ %14, %11 ]
  %13 = tail call noalias align 16 dereferenceable_or_null(100) i8* @malloc(i64 100) #4
  %14 = bitcast i8* %13 to %struct.student*
  %15 = getelementptr inbounds %struct.student, %struct.student* %14, i64 0, i32 0, i64 0
  %16 = getelementptr inbounds %struct.student, %struct.student* %14, i64 0, i32 1, i64 0
  %17 = getelementptr inbounds %struct.student, %struct.student* %14, i64 0, i32 2
  %18 = getelementptr inbounds %struct.student, %struct.student* %14, i64 0, i32 3
  %19 = getelementptr inbounds %struct.student, %struct.student* %14, i64 0, i32 4
  %20 = getelementptr inbounds %struct.student, %struct.student* %14, i64 0, i32 5, i64 0
  %21 = tail call i32 (i8*, ...) @__isoc99_scanf(i8* getelementptr inbounds ([18 x i8], [18 x i8]* @.str, i64 0, i64 0), i8* %15, i8* nonnull %16, i8* nonnull %17, i32* nonnull %18, float* nonnull %19, i8* nonnull %20) #4
  %22 = getelementptr inbounds %struct.student, %struct.student* %14, i64 0, i32 6
  store %struct.student* %12, %struct.student** %22, align 8, !tbaa !5
  %23 = tail call i32 @strcmp(i8* noundef nonnull dereferenceable(1) %15, i8* noundef nonnull dereferenceable(4) getelementptr inbounds ([4 x i8], [4 x i8]* @.str.1, i64 0, i64 0)) #5
  %24 = icmp eq i32 %23, 0
  br i1 %24, label %25, label %11, !llvm.loop !12

25:                                               ; preds = %11, %25
  %26 = phi %struct.student* [ %40, %25 ], [ %12, %11 ]
  %27 = getelementptr inbounds %struct.student, %struct.student* %26, i64 0, i32 0, i64 0
  %28 = getelementptr inbounds %struct.student, %struct.student* %26, i64 0, i32 1, i64 0
  %29 = getelementptr inbounds %struct.student, %struct.student* %26, i64 0, i32 2
  %30 = load i8, i8* %29, align 8, !tbaa !14
  %31 = sext i8 %30 to i32
  %32 = getelementptr inbounds %struct.student, %struct.student* %26, i64 0, i32 3
  %33 = load i32, i32* %32, align 4, !tbaa !15
  %34 = getelementptr inbounds %struct.student, %struct.student* %26, i64 0, i32 4
  %35 = load float, float* %34, align 8, !tbaa !16
  %36 = fpext float %35 to double
  %37 = getelementptr inbounds %struct.student, %struct.student* %26, i64 0, i32 5, i64 0
  %38 = tail call i32 (i8*, ...) @printf(i8* nonnull dereferenceable(1) getelementptr inbounds ([19 x i8], [19 x i8]* @.str.2, i64 0, i64 0), i8* %27, i8* nonnull %28, i32 %31, i32 %33, double %36, i8* nonnull %37) #4
  %39 = getelementptr inbounds %struct.student, %struct.student* %26, i64 0, i32 6
  %40 = load %struct.student*, %struct.student** %39, align 8, !tbaa !5
  %41 = icmp eq %struct.student* %40, null
  br i1 %41, label %42, label %25, !llvm.loop !17

42:                                               ; preds = %25
  ret void
}


!llvm.module.flags = !{!0, !1, !2, !3}
!llvm.ident = !{!4}

!0 = !{i32 1, !"wchar_size", i32 4}
!1 = !{i32 7, !"PIC Level", i32 2}
!2 = !{i32 7, !"PIE Level", i32 2}
!3 = !{i32 7, !"uwtable", i32 1}
!4 = !{!"clang version 13.0.0"}
!5 = !{!6, !11, i64 72}
!6 = !{!"student", !7, i64 0, !7, i64 20, !7, i64 40, !9, i64 44, !10, i64 48, !7, i64 52, !11, i64 72}
!7 = !{!"omnipotent char", !8, i64 0}
!8 = !{!"Simple C/C++ TBAA"}
!9 = !{!"int", !7, i64 0}
!10 = !{!"float", !7, i64 0}
!11 = !{!"any pointer", !7, i64 0}
!12 = distinct !{!12, !13}
!13 = !{!"llvm.loop.mustprogress"}
!14 = !{!6, !7, i64 40}
!15 = !{!6, !9, i64 44}
!16 = !{!6, !10, i64 48}
!17 = distinct !{!17, !13}
